; Function Attrs: uwtable
define void @_ZThn8_N8QuantLib31CappedFlooredYoYInflationCoupon6updateEv(ptr noundef %this) unnamed_addr #14 align 2 {
entry:
  %0 = getelementptr inbounds i8, ptr %this, i64 -8
  %vtable.i = load ptr, ptr %0, align 8, !tbaa !33
  %vbase.offset.ptr.i = getelementptr i8, ptr %vtable.i, i64 -24
  %vbase.offset.i = load i64, ptr %vbase.offset.ptr.i, align 8
  %add.ptr.i = getelementptr inbounds i8, ptr %0, i64 %vbase.offset.i
  tail call void @_ZN8QuantLib10Observable15notifyObserversEv(ptr noundef nonnull align 8 dereferenceable(56) %add.ptr.i)
  ret void
}